target datalayout = "e-m:e-p270:32:32-p271:32:32-p272:64:64-i64:64-i128:128-f80:128-n8:16:32:64-S128"
target triple = "x86_64-pc-linux-gnu"

%struct.SMgrRelationData = type { %struct.RelFileLocatorBackend, i32, [4 x i32], i32, [4 x i32], [4 x ptr], i32, %struct.dlist_node }
%struct.RelFileLocatorBackend = type { %struct.RelFileLocator, i32 }
%struct.RelFileLocator = type { i32, i32, i32 }
%struct.dlist_node = type { ptr, ptr }
%struct._MdfdVec = type { i32, i32 }
%struct.iovec = type { ptr, i64 }

@.str.2 = private unnamed_addr constant [5 x i8] c"md.c\00", align 1
@.str.5 = private unnamed_addr constant [23 x i8] c"Check free disk space.\00", align 1
@.str.11 = private unnamed_addr constant [31 x i8] c"write crosses segment boundary\00", align 1
@__func__.mdwritev = private unnamed_addr constant [9 x i8] c"mdwritev\00", align 1
@.str.12 = private unnamed_addr constant [47 x i8] c"could not write blocks %u..%u in file \22%s\22: %m\00", align 1

; Function Attrs: nounwind uwtable
define internal i32 @buffers_to_iovec(ptr noundef %0, ptr noundef %1, i32 noundef %2) #0 {
  %4 = alloca ptr, align 8
  %5 = alloca ptr, align 8
  %6 = alloca i32, align 4
  %7 = alloca ptr, align 8
  %8 = alloca i32, align 4
  %9 = alloca i32, align 4
  %10 = alloca i32, align 4
  %11 = alloca ptr, align 8
  store ptr %0, ptr %4, align 8
  store ptr %1, ptr %5, align 8
  store i32 %2, ptr %6, align 4
  call void @llvm.lifetime.start.p0(i64 8, ptr %7) #10
  call void @llvm.lifetime.start.p0(i64 4, ptr %8) #10
  call void @llvm.lifetime.start.p0(i64 4, ptr %9) #10
  store i32 0, ptr %9, align 4
  br label %12

12:                                               ; preds = %18, %3
  %13 = load i32, ptr %9, align 4
  %14 = load i32, ptr %6, align 4
  %15 = icmp slt i32 %13, %14
  br i1 %15, label %17, label %16

16:                                               ; preds = %12
  call void @llvm.lifetime.end.p0(i64 4, ptr %9) #10
  br label %21

17:                                               ; preds = %12
  br label %18

18:                                               ; preds = %17
  %19 = load i32, ptr %9, align 4
  %20 = add i32 %19, 1
  store i32 %20, ptr %9, align 4
  br label %12, !llvm.loop !15

21:                                               ; preds = %16
  %22 = load ptr, ptr %4, align 8
  %23 = getelementptr inbounds %struct.iovec, ptr %22, i64 0
  store ptr %23, ptr %7, align 8
  %24 = load ptr, ptr %5, align 8
  %25 = getelementptr inbounds ptr, ptr %24, i64 0
  %26 = load ptr, ptr %25, align 8
  %27 = load ptr, ptr %7, align 8
  %28 = getelementptr inbounds nuw %struct.iovec, ptr %27, i32 0, i32 0
  store ptr %26, ptr %28, align 8
  %29 = load ptr, ptr %7, align 8
  %30 = getelementptr inbounds nuw %struct.iovec, ptr %29, i32 0, i32 1
  store i64 8192, ptr %30, align 8
  store i32 1, ptr %8, align 4
  call void @llvm.lifetime.start.p0(i64 4, ptr %10) #10
  store i32 1, ptr %10, align 4
  br label %31

31:                                               ; preds = %67, %21
  %32 = load i32, ptr %10, align 4
  %33 = load i32, ptr %6, align 4
  %34 = icmp slt i32 %32, %33
  br i1 %34, label %36, label %35

35:                                               ; preds = %31
  call void @llvm.lifetime.end.p0(i64 4, ptr %10) #10
  br label %70

36:                                               ; preds = %31
  call void @llvm.lifetime.start.p0(i64 8, ptr %11) #10
  %37 = load ptr, ptr %5, align 8
  %38 = load i32, ptr %10, align 4
  %39 = sext i32 %38 to i64
  %40 = getelementptr inbounds ptr, ptr %37, i64 %39
  %41 = load ptr, ptr %40, align 8
  store ptr %41, ptr %11, align 8
  %42 = load ptr, ptr %7, align 8
  %43 = getelementptr inbounds nuw %struct.iovec, ptr %42, i32 0, i32 0
  %44 = load ptr, ptr %43, align 8
  %45 = load ptr, ptr %7, align 8
  %46 = getelementptr inbounds nuw %struct.iovec, ptr %45, i32 0, i32 1
  %47 = load i64, ptr %46, align 8
  %48 = getelementptr inbounds nuw i8, ptr %44, i64 %47
  %49 = load ptr, ptr %11, align 8
  %50 = icmp eq ptr %48, %49
  br i1 %50, label %51, label %56

51:                                               ; preds = %36
  %52 = load ptr, ptr %7, align 8
  %53 = getelementptr inbounds nuw %struct.iovec, ptr %52, i32 0, i32 1
  %54 = load i64, ptr %53, align 8
  %55 = add i64 %54, 8192
  store i64 %55, ptr %53, align 8
  br label %66

56:                                               ; preds = %36
  %57 = load ptr, ptr %7, align 8
  %58 = getelementptr inbounds nuw %struct.iovec, ptr %57, i32 1
  store ptr %58, ptr %7, align 8
  %59 = load ptr, ptr %11, align 8
  %60 = load ptr, ptr %7, align 8
  %61 = getelementptr inbounds nuw %struct.iovec, ptr %60, i32 0, i32 0
  store ptr %59, ptr %61, align 8
  %62 = load ptr, ptr %7, align 8
  %63 = getelementptr inbounds nuw %struct.iovec, ptr %62, i32 0, i32 1
  store i64 8192, ptr %63, align 8
  %64 = load i32, ptr %8, align 4
  %65 = add i32 %64, 1
  store i32 %65, ptr %8, align 4
  br label %66

66:                                               ; preds = %56, %51
  call void @llvm.lifetime.end.p0(i64 8, ptr %11) #10
  br label %67

67:                                               ; preds = %66
  %68 = load i32, ptr %10, align 4
  %69 = add i32 %68, 1
  store i32 %69, ptr %10, align 4
  br label %31, !llvm.loop !16

70:                                               ; preds = %35
  %71 = load i32, ptr %8, align 4
  call void @llvm.lifetime.end.p0(i64 4, ptr %8) #10
  call void @llvm.lifetime.end.p0(i64 8, ptr %7) #10
  ret i32 %71
}

; Function Attrs: nounwind uwtable
define dso_local void @mdwritev(ptr noundef %0, i32 noundef %1, i32 noundef %2, ptr noundef %3, i32 noundef %4, i1 noundef zeroext %5) #0 {
  %7 = alloca ptr, align 8
  %8 = alloca i32, align 4
  %9 = alloca i32, align 4
  %10 = alloca ptr, align 8
  %11 = alloca i32, align 4
  %12 = alloca i8, align 1
  %13 = alloca [32 x %struct.iovec], align 16
  %14 = alloca i32, align 4
  %15 = alloca i64, align 8
  %16 = alloca i32, align 4
  %17 = alloca ptr, align 8
  %18 = alloca i32, align 4
  %19 = alloca i64, align 8
  %20 = alloca i64, align 8
  %21 = alloca i8, align 1
  store ptr %0, ptr %7, align 8
  store i32 %1, ptr %8, align 4
  store i32 %2, ptr %9, align 4
  store ptr %3, ptr %10, align 8
  store i32 %4, ptr %11, align 4
  %22 = zext i1 %5 to i8
  store i8 %22, ptr %12, align 1
  br label %23

23:                                               ; preds = %163, %6
  %24 = load i32, ptr %11, align 4
  %25 = icmp ugt i32 %24, 0
  br i1 %25, label %26, label %174

26:                                               ; preds = %23
  call void @llvm.lifetime.start.p0(i64 512, ptr %13) #10
  call void @llvm.lifetime.start.p0(i64 4, ptr %14) #10
  call void @llvm.lifetime.start.p0(i64 8, ptr %15) #10
  call void @llvm.lifetime.start.p0(i64 4, ptr %16) #10
  call void @llvm.lifetime.start.p0(i64 8, ptr %17) #10
  call void @llvm.lifetime.start.p0(i64 4, ptr %18) #10
  call void @llvm.lifetime.start.p0(i64 8, ptr %19) #10
  call void @llvm.lifetime.start.p0(i64 8, ptr %20) #10
  %27 = load ptr, ptr %7, align 8
  %28 = load i32, ptr %8, align 4
  %29 = load i32, ptr %9, align 4
  %30 = load i8, ptr %12, align 1, !range !4, !noundef !5
  %31 = trunc i8 %30 to i1
  %32 = call ptr @_mdfd_getseg(ptr noundef %27, i32 noundef %28, i32 noundef %29, i1 noundef zeroext %31, i32 noundef 9)
  store ptr %32, ptr %17, align 8
  %33 = load i32, ptr %9, align 4
  %34 = urem i32 %33, 131072
  %35 = zext i32 %34 to i64
  %36 = mul i64 8192, %35
  store i64 %36, ptr %15, align 8
  %37 = load i32, ptr %11, align 4
  %38 = load i32, ptr %9, align 4
  %39 = urem i32 %38, 131072
  %40 = sub i32 131072, %39
  %41 = icmp ult i32 %37, %40
  br i1 %41, label %42, label %44

42:                                               ; preds = %26
  %43 = load i32, ptr %11, align 4
  br label %48

44:                                               ; preds = %26
  %45 = load i32, ptr %9, align 4
  %46 = urem i32 %45, 131072
  %47 = sub i32 131072, %46
  br label %48

48:                                               ; preds = %44, %42
  %49 = phi i32 [ %43, %42 ], [ %47, %44 ]
  store i32 %49, ptr %18, align 4
  %50 = load i32, ptr %18, align 4
  %51 = zext i32 %50 to i64
  %52 = icmp ult i64 %51, 32
  br i1 %52, label %53, label %56

53:                                               ; preds = %48
  %54 = load i32, ptr %18, align 4
  %55 = zext i32 %54 to i64
  br label %57

56:                                               ; preds = %48
  br label %57

57:                                               ; preds = %56, %53
  %58 = phi i64 [ %55, %53 ], [ 32, %56 ]
  %59 = trunc i64 %58 to i32
  store i32 %59, ptr %18, align 4
  %60 = load i32, ptr %18, align 4
  %61 = load i32, ptr %11, align 4
  %62 = icmp ne i32 %60, %61
  br i1 %62, label %63, label %74

63:                                               ; preds = %57
  br label %64

64:                                               ; preds = %63
  br i1 true, label %65, label %67

65:                                               ; preds = %64
  %66 = call zeroext i1 @errstart_cold(i32 noundef 21, ptr noundef null) #12
  br i1 %66, label %69, label %71

67:                                               ; preds = %64
  %68 = call zeroext i1 @errstart(i32 noundef 21, ptr noundef null)
  br i1 %68, label %69, label %71

69:                                               ; preds = %67, %65
  %70 = call i32 (ptr, ...) @errmsg_internal(ptr noundef @.str.11)
  call void @errfinish(ptr noundef @.str.2, i32 noundef 970, ptr noundef @__func__.mdwritev)
  br label %71

71:                                               ; preds = %69, %67, %65
  unreachable

72:                                               ; No predecessors!
  br label %73

73:                                               ; preds = %72
  br label %74

74:                                               ; preds = %73, %57
  %75 = getelementptr inbounds [32 x %struct.iovec], ptr %13, i64 0, i64 0
  %76 = load ptr, ptr %10, align 8
  %77 = load i32, ptr %18, align 4
  %78 = call i32 @buffers_to_iovec(ptr noundef %75, ptr noundef %76, i32 noundef %77)
  store i32 %78, ptr %14, align 4
  %79 = load i32, ptr %18, align 4
  %80 = mul i32 %79, 8192
  %81 = zext i32 %80 to i64
  store i64 %81, ptr %20, align 8
  store i64 0, ptr %19, align 8
  br label %82

82:                                               ; preds = %139, %74
  br label %83

83:                                               ; preds = %82
  br label %84

84:                                               ; preds = %83
  br label %85

85:                                               ; preds = %84
  %86 = load ptr, ptr %17, align 8
  %87 = getelementptr inbounds nuw %struct._MdfdVec, ptr %86, i32 0, i32 0
  %88 = load i32, ptr %87, align 4
  %89 = getelementptr inbounds [32 x %struct.iovec], ptr %13, i64 0, i64 0
  %90 = load i32, ptr %14, align 4
  %91 = load i64, ptr %15, align 8
  %92 = call i64 @FileWriteV(i32 noundef %88, ptr noundef %89, i32 noundef %90, i64 noundef %91, i32 noundef 167772180)
  %93 = trunc i64 %92 to i32
  store i32 %93, ptr %16, align 4
  br label %94

94:                                               ; preds = %85
  br label %95

95:                                               ; preds = %94
  br label %96

96:                                               ; preds = %95
  %97 = load i32, ptr %16, align 4
  %98 = icmp slt i32 %97, 0
  br i1 %98, label %99, label %130

99:                                               ; preds = %96
  call void @llvm.lifetime.start.p0(i64 1, ptr %21) #10
  %100 = call ptr @__errno_location() #11
  %101 = load i32, ptr %100, align 4
  %102 = icmp eq i32 %101, 28
  %103 = zext i1 %102 to i8
  store i8 %103, ptr %21, align 1
  br label %104

104:                                              ; preds = %99
  br i1 true, label %105, label %107

105:                                              ; preds = %104
  %106 = call zeroext i1 @errstart_cold(i32 noundef 21, ptr noundef null) #12
  br i1 %106, label %109, label %127

107:                                              ; preds = %104
  %108 = call zeroext i1 @errstart(i32 noundef 21, ptr noundef null)
  br i1 %108, label %109, label %127

109:                                              ; preds = %107, %105
  %110 = call i32 @errcode_for_file_access()
  %111 = load i32, ptr %9, align 4
  %112 = load i32, ptr %9, align 4
  %113 = load i32, ptr %18, align 4
  %114 = add i32 %112, %113
  %115 = sub i32 %114, 1
  %116 = load ptr, ptr %17, align 8
  %117 = getelementptr inbounds nuw %struct._MdfdVec, ptr %116, i32 0, i32 0
  %118 = load i32, ptr %117, align 4
  %119 = call ptr @FilePathName(i32 noundef %118)
  %120 = call i32 (ptr, ...) @errmsg(ptr noundef @.str.12, i32 noundef %111, i32 noundef %115, ptr noundef %119)
  %121 = load i8, ptr %21, align 1, !range !4, !noundef !5
  %122 = trunc i8 %121 to i1
  br i1 %122, label %123, label %125

123:                                              ; preds = %109
  %124 = call i32 (ptr, ...) @errhint(ptr noundef @.str.5)
  br label %126

125:                                              ; preds = %109
  br label %126

126:                                              ; preds = %125, %123
  call void @errfinish(ptr noundef @.str.2, i32 noundef 1012, ptr noundef @__func__.mdwritev)
  br label %127

127:                                              ; preds = %126, %107, %105
  unreachable

128:                                              ; No predecessors!
  br label %129

129:                                              ; preds = %128
  call void @llvm.lifetime.end.p0(i64 1, ptr %21) #10
  br label %130

130:                                              ; preds = %129, %96
  %131 = load i32, ptr %16, align 4
  %132 = sext i32 %131 to i64
  %133 = load i64, ptr %19, align 8
  %134 = add i64 %133, %132
  store i64 %134, ptr %19, align 8
  %135 = load i64, ptr %19, align 8
  %136 = load i64, ptr %20, align 8
  %137 = icmp eq i64 %135, %136
  br i1 %137, label %138, label %139

138:                                              ; preds = %130
  br label %150

139:                                              ; preds = %130
  %140 = load i32, ptr %16, align 4
  %141 = sext i32 %140 to i64
  %142 = load i64, ptr %15, align 8
  %143 = add i64 %142, %141
  store i64 %143, ptr %15, align 8
  %144 = getelementptr inbounds [32 x %struct.iovec], ptr %13, i64 0, i64 0
  %145 = getelementptr inbounds [32 x %struct.iovec], ptr %13, i64 0, i64 0
  %146 = load i32, ptr %14, align 4
  %147 = load i32, ptr %16, align 4
  %148 = sext i32 %147 to i64
  %149 = call i32 @compute_remaining_iovec(ptr noundef %144, ptr noundef %145, i32 noundef %146, i64 noundef %148)
  store i32 %149, ptr %14, align 4
  br label %82

150:                                              ; preds = %138
  %151 = load i8, ptr %12, align 1, !range !4, !noundef !5
  %152 = trunc i8 %151 to i1
  br i1 %152, label %163, label %153

153:                                              ; preds = %150
  %154 = load ptr, ptr %7, align 8
  %155 = getelementptr inbounds nuw %struct.SMgrRelationData, ptr %154, i32 0, i32 0
  %156 = getelementptr inbounds nuw %struct.RelFileLocatorBackend, ptr %155, i32 0, i32 1
  %157 = load i32, ptr %156, align 4
  %158 = icmp ne i32 %157, -1
  br i1 %158, label %163, label %159

159:                                              ; preds = %153
  %160 = load ptr, ptr %7, align 8
  %161 = load i32, ptr %8, align 4
  %162 = load ptr, ptr %17, align 8
  call void @register_dirty_segment(ptr noundef %160, i32 noundef %161, ptr noundef %162)
  br label %163

163:                                              ; preds = %159, %153, %150
  %164 = load i32, ptr %18, align 4
  %165 = load i32, ptr %11, align 4
  %166 = sub i32 %165, %164
  store i32 %166, ptr %11, align 4
  %167 = load i32, ptr %18, align 4
  %168 = load ptr, ptr %10, align 8
  %169 = zext i32 %167 to i64
  %170 = getelementptr inbounds nuw ptr, ptr %168, i64 %169
  store ptr %170, ptr %10, align 8
  %171 = load i32, ptr %18, align 4
  %172 = load i32, ptr %9, align 4
  %173 = add i32 %172, %171
  store i32 %173, ptr %9, align 4
  call void @llvm.lifetime.end.p0(i64 8, ptr %20) #10
  call void @llvm.lifetime.end.p0(i64 8, ptr %19) #10
  call void @llvm.lifetime.end.p0(i64 4, ptr %18) #10
  call void @llvm.lifetime.end.p0(i64 8, ptr %17) #10
  call void @llvm.lifetime.end.p0(i64 4, ptr %16) #10
  call void @llvm.lifetime.end.p0(i64 8, ptr %15) #10
  call void @llvm.lifetime.end.p0(i64 4, ptr %14) #10
  call void @llvm.lifetime.end.p0(i64 512, ptr %13) #10
  br label %23, !llvm.loop !17

174:                                              ; preds = %23
  ret void
}