; Function Attrs: nounwind uwtable
define dso_local void @mdwritev(ptr noundef captures(none) %0, i32 noundef %1, i32 noundef %2, ptr noundef readonly captures(none) %3, i32 noundef %4, i1 noundef zeroext %5) local_unnamed_addr #0 {
  %7 = alloca [32 x %struct.iovec], align 16
  %.not69 = icmp eq i32 %4, 0
  br i1 %.not69, label %._crit_edge75, label %8

8:                                                ; preds = %6
  %9 = getelementptr inbounds nuw i8, ptr %0, i64 12
  call void @llvm.lifetime.start.p0(i64 512, ptr nonnull %7) #15
  %10 = tail call fastcc ptr @_mdfd_getseg(ptr noundef %0, i32 noundef %1, i32 noundef %2, i1 noundef zeroext %5, i32 noundef 9)
  %11 = and i32 %2, 131071
  %12 = sub nuw nsw i32 131072, %11
  %13 = tail call i32 @llvm.umin.i32(i32 %4, i32 %12)
  %14 = tail call i32 @llvm.umin.i32(i32 %13, i32 32)
  %.not52 = icmp eq i32 %14, %4
  br i1 %.not52, label %18, label %15

15:                                               ; preds = %8
  %16 = tail call zeroext i1 @errstart_cold(i32 noundef 21, ptr noundef null) #17
  tail call void @llvm.assume(i1 %16)
  %17 = tail call i32 (ptr, ...) @errmsg_internal(ptr noundef nonnull @.str.11) #15
  tail call void @errfinish(ptr noundef nonnull @.str.2, i32 noundef 970, ptr noundef nonnull @__func__.mdwritev) #15
  unreachable

18:                                               ; preds = %8
  %19 = getelementptr inbounds nuw i8, ptr %7, i64 8
  %20 = shl nuw nsw i32 %11, 13
  %21 = zext nneg i32 %20 to i64
  %22 = load ptr, ptr %3, align 8
  store ptr %22, ptr %7, align 16
  store i64 8192, ptr %19, align 8
  %23 = icmp samesign ugt i32 %13, 1
  br i1 %23, label %.lr.ph.preheader.i, label %buffers_to_iovec.exit

.lr.ph.preheader.i:                               ; preds = %18
  %wide.trip.count.i = zext nneg i32 %4 to i64
  br label %.lr.ph.i

.lr.ph.i:                                         ; preds = %37, %.lr.ph.preheader.i
  %24 = phi ptr [ %22, %.lr.ph.preheader.i ], [ %38, %37 ]
  %indvars.iv.i = phi i64 [ 1, %.lr.ph.preheader.i ], [ %indvars.iv.next.i, %37 ]
  %.029.i = phi ptr [ %7, %.lr.ph.preheader.i ], [ %.1.i, %37 ]
  %.02327.i = phi i32 [ 1, %.lr.ph.preheader.i ], [ %.124.i, %37 ]
  %25 = getelementptr inbounds nuw ptr, ptr %3, i64 %indvars.iv.i
  %26 = load ptr, ptr %25, align 8
  %27 = getelementptr inbounds nuw i8, ptr %.029.i, i64 8
  %28 = load i64, ptr %27, align 8
  %29 = getelementptr inbounds nuw i8, ptr %24, i64 %28
  %30 = icmp eq ptr %29, %26
  br i1 %30, label %31, label %33

31:                                               ; preds = %.lr.ph.i
  %32 = add i64 %28, 8192
  store i64 %32, ptr %27, align 8
  br label %37

33:                                               ; preds = %.lr.ph.i
  %34 = getelementptr inbounds nuw i8, ptr %.029.i, i64 16
  store ptr %26, ptr %34, align 8
  %35 = getelementptr inbounds nuw i8, ptr %.029.i, i64 24
  store i64 8192, ptr %35, align 8
  %36 = add i32 %.02327.i, 1
  br label %37

37:                                               ; preds = %33, %31
  %38 = phi ptr [ %24, %31 ], [ %26, %33 ]
  %.124.i = phi i32 [ %.02327.i, %31 ], [ %36, %33 ]
  %.1.i = phi ptr [ %.029.i, %31 ], [ %34, %33 ]
  %indvars.iv.next.i = add nuw nsw i64 %indvars.iv.i, 1
  %exitcond.not.i = icmp eq i64 %indvars.iv.next.i, %wide.trip.count.i
  br i1 %exitcond.not.i, label %buffers_to_iovec.exit, label %.lr.ph.i, !llvm.loop !11

buffers_to_iovec.exit:                            ; preds = %37, %18
  %.023.lcssa.i = phi i32 [ 1, %18 ], [ %.124.i, %37 ]
  %39 = shl nuw nsw i32 %4, 13
  %40 = zext nneg i32 %39 to i64
  %41 = load i32, ptr %10, align 4
  %42 = call i64 @FileWriteV(i32 noundef %41, ptr noundef nonnull %7, i32 noundef %.023.lcssa.i, i64 noundef %21, i32 noundef 167772180) #15
  %43 = and i64 %42, 2147483648
  %.not5360 = icmp eq i64 %43, 0
  br i1 %.not5360, label %.lr.ph, label %buffers_to_iovec.exit._crit_edge

buffers_to_iovec.exit._crit_edge:                 ; preds = %61, %buffers_to_iovec.exit
  %44 = tail call ptr @__errno_location() #16
  %45 = load i32, ptr %44, align 4
  %46 = icmp eq i32 %45, 28
  %47 = call zeroext i1 @errstart_cold(i32 noundef 21, ptr noundef null) #17
  call void @llvm.assume(i1 %47)
  %48 = call i32 @errcode_for_file_access() #15
  %49 = add i32 %2, -1
  %50 = add i32 %49, %4
  %51 = load i32, ptr %10, align 4
  %52 = call ptr @FilePathName(i32 noundef %51) #15
  %53 = call i32 (ptr, ...) @errmsg(ptr noundef nonnull @.str.12, i32 noundef %2, i32 noundef %50, ptr noundef %52) #15
  br i1 %46, label %54, label %56

54:                                               ; preds = %buffers_to_iovec.exit._crit_edge
  %55 = call i32 (ptr, ...) @errhint(ptr noundef nonnull @.str.5) #15
  br label %56

56:                                               ; preds = %buffers_to_iovec.exit._crit_edge, %54
  call void @errfinish(ptr noundef nonnull @.str.2, i32 noundef 1012, ptr noundef nonnull @__func__.mdwritev) #15
  unreachable

.lr.ph:                                           ; preds = %buffers_to_iovec.exit, %61
  %57 = phi i64 [ %65, %61 ], [ %42, %buffers_to_iovec.exit ]
  %.04563 = phi i64 [ %59, %61 ], [ 0, %buffers_to_iovec.exit ]
  %.04762 = phi i32 [ %63, %61 ], [ %.023.lcssa.i, %buffers_to_iovec.exit ]
  %.04861 = phi i64 [ %62, %61 ], [ %21, %buffers_to_iovec.exit ]
  %58 = and i64 %57, 2147483647
  %59 = add i64 %58, %.04563
  %60 = icmp eq i64 %59, %40
  br i1 %60, label %67, label %61

61:                                               ; preds = %.lr.ph
  %62 = add i64 %58, %.04861
  %63 = call i32 @compute_remaining_iovec(ptr noundef nonnull %7, ptr noundef nonnull %7, i32 noundef %.04762, i64 noundef %58) #15
  %64 = load i32, ptr %10, align 4
  %65 = call i64 @FileWriteV(i32 noundef %64, ptr noundef nonnull %7, i32 noundef %63, i64 noundef %62, i32 noundef 167772180) #15
  %66 = and i64 %65, 2147483648
  %.not53 = icmp eq i64 %66, 0
  br i1 %.not53, label %.lr.ph, label %buffers_to_iovec.exit._crit_edge

67:                                               ; preds = %.lr.ph
  br i1 %5, label %._crit_edge75.loopexit, label %68

68:                                               ; preds = %67
  %69 = load i32, ptr %9, align 4
  %.not54 = icmp eq i32 %69, -1
  br i1 %.not54, label %70, label %._crit_edge75.loopexit

70:                                               ; preds = %68
  call fastcc void @register_dirty_segment(ptr noundef nonnull %0, i32 noundef %1, ptr noundef nonnull %10)
  br label %._crit_edge75.loopexit

._crit_edge75.loopexit:                           ; preds = %67, %68, %70
  call void @llvm.lifetime.end.p0(i64 512, ptr nonnull %7) #15
  br label %._crit_edge75

._crit_edge75:                                    ; preds = %._crit_edge75.loopexit, %6
  ret void
}